	.file	"Vec3.c"
	.intel_syntax noprefix
	.text
.Ltext0:
	.p2align 4,,15
	.globl	vec3copy
	.type	vec3copy, @function
vec3copy:
.LFB27:
	.file 1 "src/Vec3.c"
	.loc 1 13 0
	.cfi_startproc
.LVL0:
	.loc 1 14 0
	mov	eax, DWORD PTR 4[rdi]
	.loc 1 15 0
	movss	xmm1, DWORD PTR 8[rdi]
	.loc 1 14 0
	sal	rax, 32
	mov	rdx, rax
	mov	eax, DWORD PTR [rdi]
	or	rax, rdx
	.loc 1 15 0
	mov	QWORD PTR -16[rsp], rax
	movq	xmm0, QWORD PTR -16[rsp]
	ret
	.cfi_endproc
.LFE27:
	.size	vec3copy, .-vec3copy
	.p2align 4,,15
	.globl	vec3construct
	.type	vec3construct, @function
vec3construct:
.LFB28:
	.loc 1 18 0
	.cfi_startproc
.LVL1:
	.loc 1 19 0
	movd	eax, xmm0
	movd	edx, xmm1
	.loc 1 20 0
	movaps	xmm1, xmm2
.LVL2:
	.loc 1 19 0
	sal	rdx, 32
	mov	eax, eax
	or	rax, rdx
	.loc 1 20 0
	mov	QWORD PTR -16[rsp], rax
	movq	xmm0, QWORD PTR -16[rsp]
.LVL3:
	ret
	.cfi_endproc
.LFE28:
	.size	vec3construct, .-vec3construct
	.p2align 4,,15
	.globl	vec3set
	.type	vec3set, @function
vec3set:
.LFB29:
	.loc 1 23 0
	.cfi_startproc
.LVL4:
	.loc 1 24 0
	movss	xmm0, DWORD PTR [rsi]
	.loc 1 23 0
	mov	rax, rdi
	.loc 1 24 0
	movss	DWORD PTR [rdi], xmm0
	.loc 1 25 0
	movss	xmm0, DWORD PTR 4[rsi]
	movss	DWORD PTR 4[rdi], xmm0
	.loc 1 26 0
	movss	xmm0, DWORD PTR 8[rsi]
	movss	DWORD PTR 8[rdi], xmm0
	.loc 1 28 0
	ret
	.cfi_endproc
.LFE29:
	.size	vec3set, .-vec3set
	.p2align 4,,15
	.globl	vec3init
	.type	vec3init, @function
vec3init:
.LFB30:
	.loc 1 31 0
	.cfi_startproc
.LVL5:
	.loc 1 31 0
	mov	rax, rdi
	.loc 1 32 0
	movss	DWORD PTR [rdi], xmm0
	.loc 1 33 0
	movss	DWORD PTR 4[rdi], xmm1
	.loc 1 34 0
	movss	DWORD PTR 8[rdi], xmm2
	.loc 1 36 0
	ret
	.cfi_endproc
.LFE30:
	.size	vec3init, .-vec3init
	.p2align 4,,15
	.globl	vec3add
	.type	vec3add, @function
vec3add:
.LFB31:
	.loc 1 39 0
	.cfi_startproc
.LVL6:
	.loc 1 40 0
	movss	xmm0, DWORD PTR [rdi]
	.loc 1 39 0
	mov	rax, rdi
	.loc 1 40 0
	addss	xmm0, DWORD PTR [rsi]
	movss	DWORD PTR [rdi], xmm0
	.loc 1 41 0
	movss	xmm0, DWORD PTR 4[rdi]
	addss	xmm0, DWORD PTR 4[rsi]
	movss	DWORD PTR 4[rdi], xmm0
	.loc 1 42 0
	movss	xmm0, DWORD PTR 8[rdi]
	addss	xmm0, DWORD PTR 8[rsi]
	movss	DWORD PTR 8[rdi], xmm0
	.loc 1 44 0
	ret
	.cfi_endproc
.LFE31:
	.size	vec3add, .-vec3add
	.p2align 4,,15
	.globl	vec3sub
	.type	vec3sub, @function
vec3sub:
.LFB32:
	.loc 1 47 0
	.cfi_startproc
.LVL7:
	.loc 1 48 0
	movss	xmm0, DWORD PTR [rdi]
	.loc 1 47 0
	mov	rax, rdi
	.loc 1 48 0
	subss	xmm0, DWORD PTR [rsi]
	movss	DWORD PTR [rdi], xmm0
	.loc 1 49 0
	movss	xmm0, DWORD PTR 4[rdi]
	subss	xmm0, DWORD PTR 4[rsi]
	movss	DWORD PTR 4[rdi], xmm0
	.loc 1 50 0
	movss	xmm0, DWORD PTR 8[rdi]
	subss	xmm0, DWORD PTR 8[rsi]
	movss	DWORD PTR 8[rdi], xmm0
	.loc 1 52 0
	ret
	.cfi_endproc
.LFE32:
	.size	vec3sub, .-vec3sub
	.p2align 4,,15
	.globl	vec3negate
	.type	vec3negate, @function
vec3negate:
.LFB33:
	.loc 1 55 0
	.cfi_startproc
.LVL8:
	.loc 1 56 0
	movss	xmm1, DWORD PTR .LC0[rip]
	movss	xmm0, DWORD PTR [rdi]
	.loc 1 55 0
	mov	rax, rdi
	.loc 1 56 0
	xorps	xmm0, xmm1
	movss	DWORD PTR [rdi], xmm0
	movss	xmm0, DWORD PTR 4[rdi]
	xorps	xmm0, xmm1
	movss	DWORD PTR 4[rdi], xmm0
	movss	xmm0, DWORD PTR 8[rdi]
	xorps	xmm0, xmm1
	movss	DWORD PTR 8[rdi], xmm0
	.loc 1 58 0
	ret
	.cfi_endproc
.LFE33:
	.size	vec3negate, .-vec3negate
	.p2align 4,,15
	.globl	vec3mul
	.type	vec3mul, @function
vec3mul:
.LFB34:
	.loc 1 61 0
	.cfi_startproc
.LVL9:
	.loc 1 62 0
	movss	xmm0, DWORD PTR [rdi]
	.loc 1 61 0
	mov	rax, rdi
	.loc 1 62 0
	mulss	xmm0, DWORD PTR [rsi]
	movss	DWORD PTR [rdi], xmm0
	.loc 1 63 0
	movss	xmm0, DWORD PTR 4[rdi]
	mulss	xmm0, DWORD PTR 4[rsi]
	movss	DWORD PTR 4[rdi], xmm0
	.loc 1 64 0
	movss	xmm0, DWORD PTR 8[rdi]
	mulss	xmm0, DWORD PTR 8[rsi]
	movss	DWORD PTR 8[rdi], xmm0
	.loc 1 66 0
	ret
	.cfi_endproc
.LFE34:
	.size	vec3mul, .-vec3mul
	.p2align 4,,15
	.globl	vec3div
	.type	vec3div, @function
vec3div:
.LFB35:
	.loc 1 69 0
	.cfi_startproc
.LVL10:
	.loc 1 70 0
	movss	xmm0, DWORD PTR [rdi]
	.loc 1 69 0
	mov	rax, rdi
	.loc 1 70 0
	divss	xmm0, DWORD PTR [rsi]
	movss	DWORD PTR [rdi], xmm0
	.loc 1 71 0
	movss	xmm0, DWORD PTR 4[rdi]
	divss	xmm0, DWORD PTR 4[rsi]
	movss	DWORD PTR 4[rdi], xmm0
	.loc 1 72 0
	movss	xmm0, DWORD PTR 8[rdi]
	divss	xmm0, DWORD PTR 8[rsi]
	movss	DWORD PTR 8[rdi], xmm0
	.loc 1 74 0
	ret
	.cfi_endproc
.LFE35:
	.size	vec3div, .-vec3div
	.p2align 4,,15
	.globl	vec3addScalar
	.type	vec3addScalar, @function
vec3addScalar:
.LFB36:
	.loc 1 77 0
	.cfi_startproc
.LVL11:
	.loc 1 78 0
	movss	xmm1, DWORD PTR [rdi]
	.loc 1 77 0
	mov	rax, rdi
	.loc 1 78 0
	addss	xmm1, xmm0
	movss	DWORD PTR [rdi], xmm1
	.loc 1 79 0
	movss	xmm1, DWORD PTR 4[rdi]
	addss	xmm1, xmm0
	.loc 1 80 0
	addss	xmm0, DWORD PTR 8[rdi]
.LVL12:
	.loc 1 79 0
	movss	DWORD PTR 4[rdi], xmm1
	.loc 1 80 0
	movss	DWORD PTR 8[rdi], xmm0
	.loc 1 82 0
	ret
	.cfi_endproc
.LFE36:
	.size	vec3addScalar, .-vec3addScalar
	.p2align 4,,15
	.globl	vec3mulScalar
	.type	vec3mulScalar, @function
vec3mulScalar:
.LFB37:
	.loc 1 85 0
	.cfi_startproc
.LVL13:
	.loc 1 86 0
	movss	xmm1, DWORD PTR [rdi]
	.loc 1 85 0
	mov	rax, rdi
	.loc 1 86 0
	mulss	xmm1, xmm0
	movss	DWORD PTR [rdi], xmm1
	movss	xmm1, DWORD PTR 4[rdi]
	mulss	xmm1, xmm0
	mulss	xmm0, DWORD PTR 8[rdi]
.LVL14:
	movss	DWORD PTR 4[rdi], xmm1
	movss	DWORD PTR 8[rdi], xmm0
	.loc 1 88 0
	ret
	.cfi_endproc
.LFE37:
	.size	vec3mulScalar, .-vec3mulScalar
	.p2align 4,,15
	.globl	vec3divScalar
	.type	vec3divScalar, @function
vec3divScalar:
.LFB38:
	.loc 1 91 0
	.cfi_startproc
.LVL15:
	.loc 1 92 0
	movss	xmm1, DWORD PTR [rdi]
	.loc 1 91 0
	mov	rax, rdi
	.loc 1 92 0
	divss	xmm1, xmm0
	movss	DWORD PTR [rdi], xmm1
	.loc 1 93 0
	movss	xmm1, DWORD PTR 4[rdi]
	divss	xmm1, xmm0
	movss	DWORD PTR 4[rdi], xmm1
	.loc 1 94 0
	movss	xmm1, DWORD PTR 8[rdi]
	divss	xmm1, xmm0
	movss	DWORD PTR 8[rax], xmm1
	.loc 1 96 0
	ret
	.cfi_endproc
.LFE38:
	.size	vec3divScalar, .-vec3divScalar
	.p2align 4,,15
	.globl	vec3normalize
	.type	vec3normalize, @function
vec3normalize:
.LFB39:
	.loc 1 99 0
	.cfi_startproc
.LVL16:
	sub	rsp, 24
	.cfi_def_cfa_offset 32
	.loc 1 99 0
	mov	rax, rdi
	.loc 1 100 0
	movss	xmm3, DWORD PTR [rdi]
	movss	xmm2, DWORD PTR 4[rdi]
	movaps	xmm1, xmm3
	movaps	xmm0, xmm2
	mulss	xmm1, xmm3
	movss	xmm4, DWORD PTR 8[rdi]
	mulss	xmm0, xmm2
	addss	xmm1, xmm0
	movaps	xmm0, xmm4
	mulss	xmm0, xmm4
	addss	xmm1, xmm0
	pxor	xmm0, xmm0
	ucomiss	xmm0, xmm1
	sqrtss	xmm5, xmm1
	ja	.L17
.LVL17:
.L15:
	movss	xmm0, DWORD PTR .LC2[rip]
	divss	xmm0, xmm5
.LVL18:
	.loc 1 103 0
	mulss	xmm3, xmm0
	mulss	xmm2, xmm0
	mulss	xmm0, xmm4
.LVL19:
	movss	DWORD PTR [rax], xmm3
	movss	DWORD PTR 4[rax], xmm2
	movss	DWORD PTR 8[rax], xmm0
	.loc 1 105 0
	add	rsp, 24
	.cfi_remember_state
	.cfi_def_cfa_offset 8
	ret
.LVL20:
.L17:
	.cfi_restore_state
	.loc 1 100 0
	movaps	xmm0, xmm1
	movss	DWORD PTR 4[rsp], xmm5
	mov	QWORD PTR 8[rsp], rdi
	call	sqrtf@PLT
.LVL21:
	mov	rax, QWORD PTR 8[rsp]
	movss	xmm5, DWORD PTR 4[rsp]
	movss	xmm3, DWORD PTR [rax]
	movss	xmm2, DWORD PTR 4[rax]
	movss	xmm4, DWORD PTR 8[rax]
	jmp	.L15
	.cfi_endproc
.LFE39:
	.size	vec3normalize, .-vec3normalize
	.p2align 4,,15
	.globl	vec3unitDirection
	.type	vec3unitDirection, @function
vec3unitDirection:
.LFB40:
	.loc 1 108 0
	.cfi_startproc
.LVL22:
	sub	rsp, 40
	.cfi_def_cfa_offset 48
	pxor	xmm5, xmm5
.LBB148:
.LBB149:
	.loc 1 48 0
	movss	xmm3, DWORD PTR [rsi]
.LBE149:
.LBE148:
	.loc 1 108 0
	mov	rax, rdi
.LBB151:
.LBB150:
	.loc 1 49 0
	movss	xmm2, DWORD PTR 4[rsi]
	.loc 1 48 0
	subss	xmm3, DWORD PTR [rdi]
	.loc 1 49 0
	subss	xmm2, DWORD PTR 4[rdi]
	.loc 1 50 0
	movss	xmm1, DWORD PTR 8[rsi]
	subss	xmm1, DWORD PTR 8[rdi]
.LVL23:
.LBE150:
.LBE151:
.LBB152:
.LBB153:
	.loc 1 100 0
	movaps	xmm0, xmm3
	movaps	xmm4, xmm2
	mulss	xmm0, xmm3
	mulss	xmm4, xmm2
	addss	xmm0, xmm4
	movaps	xmm4, xmm1
	mulss	xmm4, xmm1
	addss	xmm0, xmm4
	ucomiss	xmm5, xmm0
	sqrtss	xmm4, xmm0
	ja	.L21
.LVL24:
.L19:
	movss	xmm0, DWORD PTR .LC2[rip]
	divss	xmm0, xmm4
.LVL25:
	.loc 1 103 0
	mulss	xmm3, xmm0
	mulss	xmm2, xmm0
	mulss	xmm1, xmm0
.LBE153:
.LBE152:
.LBB155:
.LBB156:
	.loc 1 24 0
	movss	DWORD PTR [rax], xmm3
	.loc 1 25 0
	movss	DWORD PTR 4[rax], xmm2
	.loc 1 26 0
	movss	DWORD PTR 8[rax], xmm1
.LVL26:
.LBE156:
.LBE155:
	.loc 1 111 0
	add	rsp, 40
	.cfi_remember_state
	.cfi_def_cfa_offset 8
	ret
.LVL27:
.L21:
	.cfi_restore_state
	movss	DWORD PTR 20[rsp], xmm4
	mov	QWORD PTR 24[rsp], rdi
	movss	DWORD PTR 16[rsp], xmm1
	movss	DWORD PTR 12[rsp], xmm2
	movss	DWORD PTR 8[rsp], xmm3
.LBB157:
.LBB154:
	.loc 1 100 0
	call	sqrtf@PLT
.LVL28:
	mov	rax, QWORD PTR 24[rsp]
	movss	xmm4, DWORD PTR 20[rsp]
	movss	xmm1, DWORD PTR 16[rsp]
	movss	xmm2, DWORD PTR 12[rsp]
	movss	xmm3, DWORD PTR 8[rsp]
	jmp	.L19
.LBE154:
.LBE157:
	.cfi_endproc
.LFE40:
	.size	vec3unitDirection, .-vec3unitDirection
	.p2align 4,,15
	.globl	vec3mulMat4
	.type	vec3mulMat4, @function
vec3mulMat4:
.LFB41:
	.loc 1 114 0
	.cfi_startproc
.LVL29:
	.loc 1 115 0
	movss	xmm0, DWORD PTR [rdi]
.LVL30:
	.loc 1 114 0
	mov	rax, rdi
	.loc 1 115 0
	movss	xmm4, DWORD PTR 4[rdi]
.LVL31:
	.loc 1 118 0
	movss	xmm1, DWORD PTR 8[rsi]
	movss	xmm2, DWORD PTR 24[rsi]
	mulss	xmm1, xmm0
	mulss	xmm2, xmm4
	.loc 1 115 0
	movss	xmm3, DWORD PTR 8[rdi]
.LVL32:
	.loc 1 117 0
	movss	xmm5, DWORD PTR 20[rsi]
	mulss	xmm5, xmm4
	.loc 1 116 0
	mulss	xmm4, DWORD PTR 16[rsi]
.LVL33:
	.loc 1 118 0
	addss	xmm1, xmm2
	movss	xmm2, DWORD PTR 40[rsi]
	mulss	xmm2, xmm3
	addss	xmm1, xmm2
	.loc 1 117 0
	movss	xmm2, DWORD PTR 4[rsi]
	mulss	xmm2, xmm0
	.loc 1 116 0
	mulss	xmm0, DWORD PTR [rsi]
.LVL34:
	addss	xmm1, DWORD PTR 56[rsi]
	.loc 1 117 0
	addss	xmm2, xmm5
	movss	xmm5, DWORD PTR 36[rsi]
	mulss	xmm5, xmm3
	.loc 1 116 0
	mulss	xmm3, DWORD PTR 32[rsi]
.LVL35:
	addss	xmm0, xmm4
	.loc 1 117 0
	addss	xmm2, xmm5
	.loc 1 116 0
	addss	xmm0, xmm3
	addss	xmm2, DWORD PTR 52[rsi]
.LVL36:
	addss	xmm0, DWORD PTR 48[rsi]
.LBB158:
.LBB159:
	.loc 1 34 0
	movss	DWORD PTR 8[rdi], xmm1
.LVL37:
	.loc 1 33 0
	movss	DWORD PTR 4[rdi], xmm2
.LVL38:
	.loc 1 32 0
	movss	DWORD PTR [rdi], xmm0
.LVL39:
.LBE159:
.LBE158:
	.loc 1 119 0
	ret
	.cfi_endproc
.LFE41:
	.size	vec3mulMat4, .-vec3mulMat4
	.p2align 4,,15
	.globl	vec3normalVector
	.type	vec3normalVector, @function
vec3normalVector:
.LFB42:
	.loc 1 122 0
	.cfi_startproc
.LVL40:
.LBB160:
.LBB161:
	.loc 1 174 0
	movss	xmm2, DWORD PTR [rdx]
.LBE161:
.LBE160:
	.loc 1 122 0
	mov	rax, rdi
.LBB166:
.LBB162:
	.loc 1 174 0
	movss	xmm0, DWORD PTR 4[rdx]
	movss	xmm7, DWORD PTR 4[rdi]
	movaps	xmm4, xmm2
.LBE162:
.LBE166:
.LBB167:
.LBB168:
	movss	xmm1, DWORD PTR 8[rsi]
	movss	xmm2, DWORD PTR 4[rsi]
.LBE168:
.LBE167:
.LBB172:
.LBB163:
	movaps	xmm5, xmm0
	movss	xmm8, DWORD PTR 8[rdi]
.LBE163:
.LBE172:
.LBB173:
.LBB169:
	subss	xmm2, xmm7
	subss	xmm1, xmm8
.LBE169:
.LBE173:
.LBB174:
.LBB164:
	movss	xmm3, DWORD PTR 8[rdx]
	movss	xmm6, DWORD PTR [rdi]
	subss	xmm5, xmm7
.LBE164:
.LBE174:
.LBB175:
.LBB170:
	movss	xmm0, DWORD PTR [rsi]
.LBE170:
.LBE175:
.LBB176:
.LBB165:
	subss	xmm4, xmm6
.LVL41:
	subss	xmm3, xmm8
.LVL42:
.LBE165:
.LBE176:
.LBB177:
.LBB171:
	subss	xmm0, xmm6
.LVL43:
.LBE171:
.LBE177:
.LBB178:
.LBB179:
	.loc 1 134 0
	movaps	xmm7, xmm1
	movaps	xmm6, xmm2
	mulss	xmm7, xmm5
	mulss	xmm6, xmm3
	.loc 1 135 0
	mulss	xmm1, xmm4
.LVL44:
	mulss	xmm3, xmm0
.LVL45:
	.loc 1 136 0
	mulss	xmm2, xmm4
.LVL46:
	mulss	xmm0, xmm5
.LVL47:
	.loc 1 134 0
	subss	xmm6, xmm7
.LVL48:
	subss	xmm1, xmm3
.LVL49:
	subss	xmm0, xmm2
.LVL50:
.LBB180:
.LBB181:
	.loc 1 32 0
	movss	DWORD PTR [rdi], xmm6
	.loc 1 33 0
	movss	DWORD PTR 4[rdi], xmm1
	.loc 1 34 0
	movss	DWORD PTR 8[rdi], xmm0
.LVL51:
.LBE181:
.LBE180:
.LBE179:
.LBE178:
	.loc 1 130 0
	ret
	.cfi_endproc
.LFE42:
	.size	vec3normalVector, .-vec3normalVector
	.p2align 4,,15
	.globl	vec3cross
	.type	vec3cross, @function
vec3cross:
.LFB43:
	.loc 1 133 0
	.cfi_startproc
.LVL52:
	.loc 1 136 0
	movss	xmm6, DWORD PTR 4[rsi]
	.loc 1 133 0
	mov	rax, rdi
	.loc 1 136 0
	movss	xmm2, DWORD PTR 4[rdi]
	.loc 1 134 0
	movaps	xmm4, xmm2
	movaps	xmm7, xmm6
	.loc 1 136 0
	movss	xmm5, DWORD PTR [rsi]
	.loc 1 135 0
	movss	xmm3, DWORD PTR 8[rsi]
.LVL53:
	.loc 1 136 0
	mulss	xmm2, xmm5
	movss	xmm0, DWORD PTR [rdi]
	.loc 1 134 0
	mulss	xmm4, xmm3
	.loc 1 135 0
	movss	xmm1, DWORD PTR 8[rdi]
.LVL54:
	mulss	xmm3, xmm0
.LVL55:
	.loc 1 134 0
	mulss	xmm7, xmm1
	.loc 1 136 0
	mulss	xmm0, xmm6
.LVL56:
	.loc 1 135 0
	mulss	xmm1, xmm5
.LVL57:
	.loc 1 134 0
	subss	xmm4, xmm7
	subss	xmm0, xmm2
	subss	xmm1, xmm3
.LVL58:
.LBB182:
.LBB183:
	.loc 1 32 0
	movss	DWORD PTR [rdi], xmm4
	.loc 1 34 0
	movss	DWORD PTR 8[rdi], xmm0
.LVL59:
	.loc 1 33 0
	movss	DWORD PTR 4[rdi], xmm1
.LBE183:
.LBE182:
	.loc 1 142 0
	ret
	.cfi_endproc
.LFE43:
	.size	vec3cross, .-vec3cross
	.p2align 4,,15
	.globl	vec3dot
	.type	vec3dot, @function
vec3dot:
.LFB44:
	.loc 1 145 0
	.cfi_startproc
.LVL60:
	.loc 1 146 0
	movss	xmm0, DWORD PTR [rdi]
	movss	xmm1, DWORD PTR 4[rdi]
	mulss	xmm0, DWORD PTR [rsi]
	mulss	xmm1, DWORD PTR 4[rsi]
	addss	xmm0, xmm1
	movss	xmm1, DWORD PTR 8[rdi]
	mulss	xmm1, DWORD PTR 8[rsi]
	addss	xmm0, xmm1
	.loc 1 147 0
	ret
	.cfi_endproc
.LFE44:
	.size	vec3dot, .-vec3dot
	.p2align 4,,15
	.globl	vec3length
	.type	vec3length, @function
vec3length:
.LFB45:
	.loc 1 150 0
	.cfi_startproc
.LVL61:
	.loc 1 151 0
	movss	xmm1, DWORD PTR [rdi]
	movss	xmm2, DWORD PTR 4[rdi]
	mulss	xmm1, xmm1
	mulss	xmm2, xmm2
	movss	xmm0, DWORD PTR 8[rdi]
	mulss	xmm0, xmm0
	addss	xmm1, xmm2
	pxor	xmm2, xmm2
	addss	xmm0, xmm1
	ucomiss	xmm2, xmm0
	sqrtss	xmm1, xmm0
	ja	.L32
	.loc 1 152 0
	movaps	xmm0, xmm1
	ret
.L32:
	.loc 1 150 0
	sub	rsp, 24
	.cfi_def_cfa_offset 32
	movss	DWORD PTR 12[rsp], xmm1
	.loc 1 151 0
	call	sqrtf@PLT
.LVL62:
	movss	xmm1, DWORD PTR 12[rsp]
	.loc 1 152 0
	add	rsp, 24
	.cfi_def_cfa_offset 8
	movaps	xmm0, xmm1
	ret
	.cfi_endproc
.LFE45:
	.size	vec3length, .-vec3length
	.p2align 4,,15
	.globl	vec3distance
	.type	vec3distance, @function
vec3distance:
.LFB46:
	.loc 1 155 0
	.cfi_startproc
.LVL63:
	.loc 1 156 0
	movss	xmm1, DWORD PTR [rsi]
	.loc 1 157 0
	movss	xmm2, DWORD PTR 4[rsi]
	.loc 1 156 0
	subss	xmm1, DWORD PTR [rdi]
.LVL64:
	.loc 1 157 0
	subss	xmm2, DWORD PTR 4[rdi]
.LVL65:
	.loc 1 158 0
	movss	xmm0, DWORD PTR 8[rsi]
	subss	xmm0, DWORD PTR 8[rdi]
.LVL66:
	.loc 1 159 0
	mulss	xmm1, xmm1
.LVL67:
	mulss	xmm2, xmm2
.LVL68:
	mulss	xmm0, xmm0
.LVL69:
	addss	xmm1, xmm2
	pxor	xmm2, xmm2
	addss	xmm0, xmm1
	ucomiss	xmm2, xmm0
	sqrtss	xmm1, xmm0
	ja	.L39
	.loc 1 160 0
	movaps	xmm0, xmm1
	ret
.L39:
	.loc 1 155 0
	sub	rsp, 24
	.cfi_def_cfa_offset 32
	movss	DWORD PTR 12[rsp], xmm1
	.loc 1 159 0
	call	sqrtf@PLT
.LVL70:
	movss	xmm1, DWORD PTR 12[rsp]
	.loc 1 160 0
	add	rsp, 24
	.cfi_def_cfa_offset 8
	movaps	xmm0, xmm1
	ret
	.cfi_endproc
.LFE46:
	.size	vec3distance, .-vec3distance
	.p2align 4,,15
	.globl	vec3copyMulScalar
	.type	vec3copyMulScalar, @function
vec3copyMulScalar:
.LFB47:
	.loc 1 163 0
	.cfi_startproc
.LVL71:
	movss	xmm3, DWORD PTR 4[rdi]
	mulss	xmm3, xmm0
	movss	xmm2, DWORD PTR [rdi]
	mulss	xmm2, xmm0
	mulss	xmm0, DWORD PTR 8[rdi]
.LVL72:
	movd	eax, xmm3
	movd	edx, xmm2
	mov	rcx, rax
	sal	rcx, 32
	mov	eax, edx
	or	rax, rcx
	.loc 1 164 0
	movaps	xmm1, xmm0
	.loc 1 165 0
	mov	QWORD PTR -16[rsp], rax
	movq	xmm0, QWORD PTR -16[rsp]
	ret
	.cfi_endproc
.LFE47:
	.size	vec3copyMulScalar, .-vec3copyMulScalar
	.p2align 4,,15
	.globl	vec3copyAdd
	.type	vec3copyAdd, @function
vec3copyAdd:
.LFB48:
	.loc 1 168 0
	.cfi_startproc
.LVL73:
	.loc 1 169 0
	movss	xmm2, DWORD PTR 4[rdi]
	movss	xmm0, DWORD PTR [rdi]
	addss	xmm2, DWORD PTR 4[rsi]
	addss	xmm0, DWORD PTR [rsi]
	movss	xmm1, DWORD PTR 8[rdi]
.LVL74:
	.loc 1 170 0
	addss	xmm1, DWORD PTR 8[rsi]
	movq	rdx, xmm2
	movd	eax, xmm0
	sal	rdx, 32
	or	rax, rdx
	mov	QWORD PTR -16[rsp], rax
	movq	xmm0, QWORD PTR -16[rsp]
	ret
	.cfi_endproc
.LFE48:
	.size	vec3copyAdd, .-vec3copyAdd
	.p2align 4,,15
	.globl	vec3copySub
	.type	vec3copySub, @function
vec3copySub:
.LFB49:
	.loc 1 173 0
	.cfi_startproc
.LVL75:
	.loc 1 174 0
	movss	xmm2, DWORD PTR 4[rdi]
	movss	xmm0, DWORD PTR [rdi]
	subss	xmm2, DWORD PTR 4[rsi]
	subss	xmm0, DWORD PTR [rsi]
	movss	xmm1, DWORD PTR 8[rdi]
.LVL76:
	.loc 1 175 0
	subss	xmm1, DWORD PTR 8[rsi]
	movq	rdx, xmm2
	movd	eax, xmm0
	sal	rdx, 32
	or	rax, rdx
	mov	QWORD PTR -16[rsp], rax
	movq	xmm0, QWORD PTR -16[rsp]
	ret
	.cfi_endproc
.LFE49:
	.size	vec3copySub, .-vec3copySub
	.p2align 4,,15
	.globl	vec3copyCross
	.type	vec3copyCross, @function
vec3copyCross:
.LFB50:
	.loc 1 178 0
	.cfi_startproc
.LVL77:
	.loc 1 181 0
	movss	xmm6, DWORD PTR 4[rsi]
	movss	xmm3, DWORD PTR 4[rdi]
	.loc 1 179 0
	movaps	xmm7, xmm6
	movaps	xmm2, xmm3
	.loc 1 181 0
	movss	xmm1, DWORD PTR [rdi]
	movss	xmm5, DWORD PTR [rsi]
	.loc 1 180 0
	movss	xmm0, DWORD PTR 8[rdi]
	.loc 1 181 0
	mulss	xmm3, xmm5
	.loc 1 180 0
	movss	xmm4, DWORD PTR 8[rsi]
.LVL78:
	.loc 1 179 0
	mulss	xmm7, xmm0
	mulss	xmm2, xmm4
	.loc 1 180 0
	mulss	xmm0, xmm5
	mulss	xmm4, xmm1
	.loc 1 181 0
	mulss	xmm1, xmm6
	subss	xmm2, xmm7
	subss	xmm0, xmm4
	.loc 1 182 0
	subss	xmm1, xmm3
	movd	edx, xmm2
	movq	rax, xmm0
	sal	rax, 32
	or	rax, rdx
	mov	QWORD PTR -16[rsp], rax
	movq	xmm0, QWORD PTR -16[rsp]
	ret
	.cfi_endproc
.LFE50:
	.size	vec3copyCross, .-vec3copyCross
	.p2align 4,,15
	.globl	vec3equiv
	.type	vec3equiv, @function
vec3equiv:
.LFB51:
	.loc 1 185 0
	.cfi_startproc
.LVL79:
.LBB184:
.LBB185:
	.loc 1 174 0
	movss	xmm0, DWORD PTR [rdi]
.LBE185:
.LBE184:
	.loc 1 187 0
	xor	eax, eax
.LBB190:
.LBB186:
	.loc 1 174 0
	subss	xmm0, DWORD PTR [rsi]
.LBE186:
.LBE190:
	.loc 1 187 0
	movss	xmm1, DWORD PTR .LC3[rip]
.LBB191:
.LBB187:
	.loc 1 174 0
	movss	xmm3, DWORD PTR 8[rdi]
	movss	xmm5, DWORD PTR 8[rsi]
	movss	xmm2, DWORD PTR 4[rdi]
	movss	xmm4, DWORD PTR 4[rsi]
.LVL80:
.LBE187:
.LBE191:
	.loc 1 187 0
	ucomiss	xmm1, xmm0
	ja	.L44
	.loc 1 188 0
	ucomiss	xmm0, DWORD PTR .LC4[rip]
	ja	.L44
.LBB192:
.LBB188:
	.loc 1 174 0
	subss	xmm2, xmm4
.LVL81:
.LBE188:
.LBE192:
	.loc 1 189 0
	ucomiss	xmm1, xmm2
	ja	.L44
	.loc 1 190 0
	ucomiss	xmm2, DWORD PTR .LC4[rip]
	ja	.L44
.LBB193:
.LBB189:
	.loc 1 174 0
	subss	xmm3, xmm5
.LVL82:
.LBE189:
.LBE193:
	.loc 1 191 0
	ucomiss	xmm1, xmm3
	ja	.L44
	.loc 1 192 0
	ucomiss	xmm3, DWORD PTR .LC4[rip]
	setbe	al
.LVL83:
.L44:
	.loc 1 194 0
	rep ret
	.cfi_endproc
.LFE51:
	.size	vec3equiv, .-vec3equiv
	.p2align 4,,15
	.globl	areOrthogonal
	.type	areOrthogonal, @function
areOrthogonal:
.LFB52:
	.loc 1 197 0
	.cfi_startproc
.LVL84:
	.loc 1 198 0
	movss	xmm0, DWORD PTR [rdi]
	mov	edx, 0
	movss	xmm1, DWORD PTR 4[rdi]
	mulss	xmm0, DWORD PTR [rsi]
	mulss	xmm1, DWORD PTR 4[rsi]
	addss	xmm0, xmm1
	movss	xmm1, DWORD PTR 8[rdi]
	mulss	xmm1, DWORD PTR 8[rsi]
	addss	xmm0, xmm1
	pxor	xmm1, xmm1
	ucomiss	xmm0, xmm1
	setnp	al
	cmovne	eax, edx
	.loc 1 199 0
	ret
	.cfi_endproc
.LFE52:
	.size	areOrthogonal, .-areOrthogonal
	.p2align 4,,15
	.globl	ray_plane_intersection
	.type	ray_plane_intersection, @function
ray_plane_intersection:
.LFB53:
	.loc 1 203 0
	.cfi_startproc
.LVL85:
	.loc 1 207 0
	mov	rax, QWORD PTR 8[rcx]
.LVL86:
	mov	r8, QWORD PTR [rcx]
.LBB194:
.LBB195:
	.loc 1 25 0
	movss	xmm2, DWORD PTR 4[rdx]
	.loc 1 24 0
	movss	xmm12, DWORD PTR [rdx]
.LBE195:
.LBE194:
.LBB197:
.LBB198:
	.loc 1 136 0
	movaps	xmm3, xmm2
.LBE198:
.LBE197:
.LBB203:
.LBB204:
	.loc 1 48 0
	movss	xmm15, DWORD PTR [rax]
	.loc 1 49 0
	movss	xmm9, DWORD PTR 4[rax]
.LBE204:
.LBE203:
.LBB211:
.LBB199:
	.loc 1 136 0
	movaps	xmm10, xmm12
.LBE199:
.LBE211:
.LBB212:
.LBB205:
	.loc 1 50 0
	movss	xmm4, DWORD PTR 8[rax]
.LBE205:
.LBE212:
	.loc 1 208 0
	mov	rax, QWORD PTR 16[rcx]
.LVL87:
.LBB213:
.LBB206:
	.loc 1 48 0
	movss	xmm8, DWORD PTR [r8]
	.loc 1 49 0
	movss	xmm14, DWORD PTR 4[r8]
.LBE206:
.LBE213:
.LBB214:
.LBB200:
	.loc 1 135 0
	movaps	xmm5, xmm12
.LBE200:
.LBE214:
.LBB215:
.LBB216:
	.loc 1 48 0
	movss	xmm1, DWORD PTR [rax]
.LBE216:
.LBE215:
.LBB220:
.LBB207:
	subss	xmm15, xmm8
.LVL88:
.LBE207:
.LBE220:
.LBB221:
.LBB217:
	.loc 1 49 0
	movss	xmm7, DWORD PTR 4[rax]
	.loc 1 48 0
	subss	xmm1, xmm8
	.loc 1 49 0
	subss	xmm7, xmm14
.LBE217:
.LBE221:
.LBB222:
.LBB208:
	.loc 1 50 0
	movss	xmm0, DWORD PTR 8[r8]
.LBE208:
.LBE222:
.LBB223:
.LBB218:
	movss	xmm6, DWORD PTR 8[rax]
.LBE218:
.LBE223:
.LBB224:
.LBB209:
	.loc 1 49 0
	subss	xmm9, xmm14
.LVL89:
.LBE209:
.LBE224:
.LBB225:
.LBB219:
	.loc 1 50 0
	subss	xmm6, xmm0
.LBE219:
.LBE225:
.LBB226:
.LBB196:
	.loc 1 26 0
	movss	xmm11, DWORD PTR 8[rdx]
.LBE196:
.LBE226:
.LBB227:
.LBB201:
	.loc 1 136 0
	mulss	xmm3, xmm1
	.loc 1 135 0
	movaps	xmm13, xmm11
	.loc 1 136 0
	mulss	xmm10, xmm7
.LBE201:
.LBE227:
.LBB228:
.LBB210:
	.loc 1 50 0
	subss	xmm4, xmm0
.LVL90:
.LBE210:
.LBE228:
.LBB229:
.LBB202:
	.loc 1 135 0
	mulss	xmm13, xmm1
	mulss	xmm5, xmm6
.LVL91:
	.loc 1 134 0
	subss	xmm10, xmm3
	movaps	xmm3, xmm2
	movaps	xmm2, xmm11
.LVL92:
	mulss	xmm3, xmm6
.LVL93:
	subss	xmm13, xmm5
	mulss	xmm2, xmm7
	subss	xmm3, xmm2
.LVL94:
.LBE202:
.LBE229:
.LBB230:
.LBB231:
	.loc 1 146 0
	movaps	xmm2, xmm13
	mulss	xmm2, xmm7
	movaps	xmm5, xmm3
	mulss	xmm5, xmm1
	addss	xmm5, xmm2
	movaps	xmm2, xmm10
	mulss	xmm2, xmm6
	addss	xmm5, xmm2
.LVL95:
.LBE231:
.LBE230:
	.loc 1 213 0
	movss	xmm2, DWORD PTR .LC4[rip]
	ucomiss	xmm2, xmm5
	ja	.L56
.LVL96:
.LBB232:
.LBB233:
	.loc 1 48 0
	movss	xmm2, DWORD PTR [rsi]
	subss	xmm2, xmm8
	movaps	xmm8, xmm2
.LVL97:
	.loc 1 49 0
	movss	xmm2, DWORD PTR 4[rsi]
.LVL98:
	subss	xmm2, xmm14
.LBE233:
.LBE232:
.LBB235:
.LBB236:
	.loc 1 146 0
	mulss	xmm3, xmm8
.LVL99:
.LBE236:
.LBE235:
.LBB239:
.LBB234:
	.loc 1 49 0
	movaps	xmm14, xmm2
.LVL100:
	.loc 1 50 0
	movss	xmm2, DWORD PTR 8[rsi]
.LVL101:
	subss	xmm2, xmm0
.LVL102:
.LBE234:
.LBE239:
.LBB240:
.LBB237:
	.loc 1 146 0
	movaps	xmm0, xmm13
.LBE237:
.LBE240:
	.loc 1 217 0
	movss	xmm13, DWORD PTR .LC3[rip]
.LVL103:
.LBB241:
.LBB238:
	.loc 1 146 0
	mulss	xmm0, xmm14
.LVL104:
	addss	xmm3, xmm0
	movaps	xmm0, xmm10
	mulss	xmm0, xmm2
	addss	xmm0, xmm3
.LVL105:
.LBE238:
.LBE241:
	.loc 1 217 0
	ucomiss	xmm13, xmm0
	.loc 1 215 0
	movss	DWORD PTR 4[rdi], xmm0
.LVL106:
	.loc 1 217 0
	ja	.L56
	.loc 1 217 0 is_stmt 0 discriminator 2
	ucomiss	xmm0, xmm5
	ja	.L56
.LVL107:
.LBB242:
.LBB243:
	.loc 1 136 0 is_stmt 1
	movaps	xmm10, xmm9
.LVL108:
	movaps	xmm3, xmm15
	.loc 1 134 0
	mulss	xmm9, xmm2
.LVL109:
	.loc 1 136 0
	mulss	xmm10, xmm8
.LVL110:
	mulss	xmm3, xmm14
	.loc 1 135 0
	mulss	xmm8, xmm4
.LVL111:
	.loc 1 134 0
	mulss	xmm4, xmm14
.LVL112:
	subss	xmm10, xmm3
	.loc 1 135 0
	movaps	xmm3, xmm15
	mulss	xmm3, xmm2
	.loc 1 134 0
	subss	xmm4, xmm9
.LVL113:
.LBE243:
.LBE242:
.LBB245:
.LBB246:
	.loc 1 146 0
	movss	xmm2, DWORD PTR 4[rdx]
.LVL114:
	mulss	xmm11, xmm10
.LVL115:
.LBE246:
.LBE245:
.LBB248:
.LBB244:
	.loc 1 134 0
	subss	xmm3, xmm8
.LVL116:
.LBE244:
.LBE248:
.LBB249:
.LBB247:
	.loc 1 146 0
	mulss	xmm12, xmm4
.LVL117:
	mulss	xmm2, xmm3
	addss	xmm2, xmm12
	addss	xmm2, xmm11
.LVL118:
.LBE247:
.LBE249:
	.loc 1 221 0
	ucomiss	xmm13, xmm2
	.loc 1 219 0
	movss	DWORD PTR [rdi], xmm2
.LVL119:
	.loc 1 221 0
	ja	.L56
	.loc 1 221 0 is_stmt 0 discriminator 2
	movaps	xmm8, xmm0
	addss	xmm8, xmm2
	ucomiss	xmm8, xmm5
	ja	.L56
	.loc 1 225 0 is_stmt 1
	movss	xmm8, DWORD PTR .LC2[rip]
.LBB250:
.LBB251:
	.loc 1 146 0
	mulss	xmm7, xmm3
.LVL120:
.LBE251:
.LBE250:
	.loc 1 225 0
	mov	rax, rdi
	divss	xmm8, xmm5
.LVL121:
.LBB255:
.LBB252:
	.loc 1 146 0
	mulss	xmm1, xmm4
.LVL122:
	mulss	xmm6, xmm10
.LVL123:
.LBE252:
.LBE255:
.LBB256:
.LBB257:
	.loc 1 86 0
	mulss	xmm0, xmm8
	mulss	xmm2, xmm8
	movss	DWORD PTR 4[rdi], xmm0
.LBE257:
.LBE256:
.LBB260:
.LBB253:
	.loc 1 146 0
	movaps	xmm0, xmm7
.LBE253:
.LBE260:
.LBB261:
.LBB258:
	.loc 1 86 0
	movss	DWORD PTR [rdi], xmm2
.LBE258:
.LBE261:
.LBB262:
.LBB254:
	.loc 1 146 0
	addss	xmm0, xmm1
	addss	xmm0, xmm6
.LBE254:
.LBE262:
.LBB263:
.LBB259:
	.loc 1 86 0
	mulss	xmm0, xmm8
	movss	DWORD PTR 8[rdi], xmm0
.LVL124:
.LBE259:
.LBE263:
	.loc 1 226 0
	ret
.LVL125:
	.p2align 4,,10
	.p2align 3
.L56:
	.loc 1 213 0
	xor	eax, eax
	ret
	.cfi_endproc
.LFE53:
	.size	ray_plane_intersection, .-ray_plane_intersection
	.p2align 4,,15
	.globl	ray_and_plane_intersection
	.type	ray_and_plane_intersection, @function
ray_and_plane_intersection:
.LFB54:
	.loc 1 229 0
	.cfi_startproc
.LVL126:
.LBB264:
.LBB265:
	.loc 1 48 0
	movss	xmm8, DWORD PTR [rcx]
	.loc 1 49 0
	movss	xmm14, DWORD PTR 4[rcx]
.LBE265:
.LBE264:
.LBB272:
.LBB273:
	.loc 1 48 0
	movss	xmm1, DWORD PTR [r9]
	.loc 1 49 0
	movss	xmm7, DWORD PTR 4[r9]
	.loc 1 48 0
	subss	xmm1, xmm8
	.loc 1 49 0
	subss	xmm7, xmm14
.LBE273:
.LBE272:
.LBB276:
.LBB277:
	.loc 1 25 0
	movss	xmm2, DWORD PTR 4[rdx]
	.loc 1 24 0
	movss	xmm12, DWORD PTR [rdx]
.LBE277:
.LBE276:
.LBB279:
.LBB280:
	.loc 1 136 0
	movaps	xmm3, xmm2
	movaps	xmm10, xmm12
.LBE280:
.LBE279:
.LBB289:
.LBB266:
	.loc 1 50 0
	movss	xmm0, DWORD PTR 8[rcx]
.LBE266:
.LBE289:
.LBB290:
.LBB281:
	.loc 1 136 0
	mulss	xmm3, xmm1
.LBE281:
.LBE290:
.LBB291:
.LBB274:
	.loc 1 50 0
	movss	xmm6, DWORD PTR 8[r9]
.LBE274:
.LBE291:
.LBB292:
.LBB282:
	.loc 1 136 0
	mulss	xmm10, xmm7
.LBE282:
.LBE292:
.LBB293:
.LBB275:
	.loc 1 50 0
	subss	xmm6, xmm0
.LBE275:
.LBE293:
.LBB294:
.LBB278:
	.loc 1 26 0
	movss	xmm11, DWORD PTR 8[rdx]
.LBE278:
.LBE294:
.LBB295:
.LBB283:
	.loc 1 135 0
	movaps	xmm5, xmm12
	movaps	xmm13, xmm11
.LBE283:
.LBE295:
.LBB296:
.LBB267:
	.loc 1 48 0
	movss	xmm15, DWORD PTR [r8]
.LBE267:
.LBE296:
.LBB297:
.LBB284:
	.loc 1 134 0
	subss	xmm10, xmm3
	movaps	xmm3, xmm2
	movaps	xmm2, xmm11
	.loc 1 135 0
	mulss	xmm5, xmm6
	mulss	xmm13, xmm1
.LBE284:
.LBE297:
.LBB298:
.LBB268:
	.loc 1 49 0
	movss	xmm9, DWORD PTR 4[r8]
.LBE268:
.LBE298:
.LBB299:
.LBB285:
	.loc 1 134 0
	mulss	xmm2, xmm7
.LBE285:
.LBE299:
.LBB300:
.LBB269:
	.loc 1 50 0
	movss	xmm4, DWORD PTR 8[r8]
.LBE269:
.LBE300:
.LBB301:
.LBB286:
	.loc 1 134 0
	mulss	xmm3, xmm6
.LBE286:
.LBE301:
.LBB302:
.LBB270:
	.loc 1 48 0
	subss	xmm15, xmm8
.LVL127:
	.loc 1 49 0
	subss	xmm9, xmm14
.LVL128:
.LBE270:
.LBE302:
.LBB303:
.LBB287:
	.loc 1 134 0
	subss	xmm13, xmm5
.LBE287:
.LBE303:
.LBB304:
.LBB271:
	.loc 1 50 0
	subss	xmm4, xmm0
.LVL129:
.LBE271:
.LBE304:
.LBB305:
.LBB288:
	.loc 1 134 0
	subss	xmm3, xmm2
.LVL130:
.LBE288:
.LBE305:
.LBB306:
.LBB307:
	.loc 1 146 0
	movaps	xmm2, xmm13
	movaps	xmm5, xmm3
	mulss	xmm2, xmm7
	mulss	xmm5, xmm1
	addss	xmm5, xmm2
	movaps	xmm2, xmm10
	mulss	xmm2, xmm6
	addss	xmm5, xmm2
.LVL131:
.LBE307:
.LBE306:
	.loc 1 240 0
	movss	xmm2, DWORD PTR .LC4[rip]
	ucomiss	xmm2, xmm5
	ja	.L62
.LVL132:
.LBB308:
.LBB309:
	.loc 1 48 0
	movss	xmm2, DWORD PTR [rsi]
	subss	xmm2, xmm8
	movaps	xmm8, xmm2
.LVL133:
	.loc 1 49 0
	movss	xmm2, DWORD PTR 4[rsi]
.LVL134:
	subss	xmm2, xmm14
.LBE309:
.LBE308:
.LBB311:
.LBB312:
	.loc 1 146 0
	mulss	xmm3, xmm8
.LVL135:
.LBE312:
.LBE311:
.LBB315:
.LBB310:
	.loc 1 49 0
	movaps	xmm14, xmm2
.LVL136:
	.loc 1 50 0
	movss	xmm2, DWORD PTR 8[rsi]
.LVL137:
	subss	xmm2, xmm0
.LVL138:
.LBE310:
.LBE315:
.LBB316:
.LBB313:
	.loc 1 146 0
	movaps	xmm0, xmm13
.LBE313:
.LBE316:
	.loc 1 244 0
	pxor	xmm13, xmm13
.LVL139:
.LBB317:
.LBB314:
	.loc 1 146 0
	mulss	xmm0, xmm14
.LVL140:
	addss	xmm3, xmm0
	movaps	xmm0, xmm10
	mulss	xmm0, xmm2
	addss	xmm0, xmm3
.LVL141:
.LBE314:
.LBE317:
	.loc 1 244 0
	ucomiss	xmm13, xmm0
	.loc 1 242 0
	movss	DWORD PTR 4[rdi], xmm0
.LVL142:
	.loc 1 244 0
	ja	.L62
	.loc 1 244 0 is_stmt 0 discriminator 2
	ucomiss	xmm0, xmm5
	ja	.L62
.LVL143:
.LBB318:
.LBB319:
	.loc 1 136 0 is_stmt 1
	movaps	xmm10, xmm9
.LVL144:
	movaps	xmm3, xmm15
	.loc 1 134 0
	mulss	xmm9, xmm2
.LVL145:
	.loc 1 136 0
	mulss	xmm10, xmm8
.LVL146:
	mulss	xmm3, xmm14
	.loc 1 135 0
	mulss	xmm8, xmm4
.LVL147:
	.loc 1 134 0
	mulss	xmm4, xmm14
.LVL148:
	subss	xmm10, xmm3
	.loc 1 135 0
	movaps	xmm3, xmm15
	mulss	xmm3, xmm2
	.loc 1 134 0
	subss	xmm4, xmm9
.LVL149:
.LBE319:
.LBE318:
.LBB321:
.LBB322:
	.loc 1 146 0
	movss	xmm2, DWORD PTR 4[rdx]
.LVL150:
	mulss	xmm11, xmm10
.LVL151:
.LBE322:
.LBE321:
.LBB324:
.LBB320:
	.loc 1 134 0
	subss	xmm3, xmm8
.LVL152:
.LBE320:
.LBE324:
.LBB325:
.LBB323:
	.loc 1 146 0
	mulss	xmm12, xmm4
.LVL153:
	mulss	xmm2, xmm3
	addss	xmm2, xmm12
	addss	xmm2, xmm11
.LVL154:
.LBE323:
.LBE325:
	.loc 1 248 0
	ucomiss	xmm13, xmm2
	.loc 1 246 0
	movss	DWORD PTR [rdi], xmm2
.LVL155:
	.loc 1 248 0
	ja	.L62
	.loc 1 248 0 is_stmt 0 discriminator 2
	movaps	xmm8, xmm0
	addss	xmm8, xmm2
	ucomiss	xmm8, xmm5
	ja	.L62
	.loc 1 252 0 is_stmt 1
	movss	xmm8, DWORD PTR .LC2[rip]
.LBB326:
.LBB327:
	.loc 1 146 0
	mulss	xmm7, xmm3
.LVL156:
.LBE327:
.LBE326:
	.loc 1 252 0
	mov	rax, rdi
	divss	xmm8, xmm5
.LVL157:
.LBB331:
.LBB328:
	.loc 1 146 0
	mulss	xmm1, xmm4
.LVL158:
	mulss	xmm6, xmm10
.LVL159:
.LBE328:
.LBE331:
.LBB332:
.LBB333:
	.loc 1 86 0
	mulss	xmm0, xmm8
	mulss	xmm2, xmm8
	movss	DWORD PTR 4[rdi], xmm0
.LBE333:
.LBE332:
.LBB336:
.LBB329:
	.loc 1 146 0
	movaps	xmm0, xmm7
.LBE329:
.LBE336:
.LBB337:
.LBB334:
	.loc 1 86 0
	movss	DWORD PTR [rdi], xmm2
.LBE334:
.LBE337:
.LBB338:
.LBB330:
	.loc 1 146 0
	addss	xmm0, xmm1
	addss	xmm0, xmm6
.LBE330:
.LBE338:
.LBB339:
.LBB335:
	.loc 1 86 0
	mulss	xmm0, xmm8
	movss	DWORD PTR 8[rdi], xmm0
.LVL160:
.LBE335:
.LBE339:
	.loc 1 263 0
	ret
.LVL161:
	.p2align 4,,10
	.p2align 3
.L62:
	.loc 1 240 0
	xor	eax, eax
	ret
	.cfi_endproc
.LFE54:
	.size	ray_and_plane_intersection, .-ray_and_plane_intersection
	.p2align 4,,15
	.globl	vectorAndPlaneIntersection
	.type	vectorAndPlaneIntersection, @function
vectorAndPlaneIntersection:
.LFB55:
	.loc 1 270 0
	.cfi_startproc
.LVL162:
	sub	rsp, 88
	.cfi_def_cfa_offset 96
	pxor	xmm10, xmm10
.LBB364:
.LBB365:
	.loc 1 100 0
	movss	xmm1, DWORD PTR [rdx]
	movss	xmm7, DWORD PTR 4[rdx]
	movaps	xmm2, xmm1
	movaps	xmm0, xmm7
	mulss	xmm2, xmm1
	movss	xmm4, DWORD PTR 8[rdx]
	mulss	xmm0, xmm7
	addss	xmm2, xmm0
	movaps	xmm0, xmm4
	mulss	xmm0, xmm4
	addss	xmm0, xmm2
	ucomiss	xmm10, xmm0
	sqrtss	xmm5, xmm0
	ja	.L72
.LVL163:
.L65:
	movss	xmm3, DWORD PTR .LC2[rip]
	movaps	xmm8, xmm3
	divss	xmm8, xmm5
.LVL164:
	.loc 1 103 0
	mulss	xmm1, xmm8
	mulss	xmm7, xmm8
	mulss	xmm8, xmm4
.LVL165:
	movss	DWORD PTR [rdx], xmm1
	movaps	xmm9, xmm1
	movss	DWORD PTR 4[rdx], xmm7
.LBE365:
.LBE364:
.LBB368:
.LBB369:
.LBB370:
.LBB371:
	.loc 1 48 0
	movss	xmm6, DWORD PTR [r8]
	.loc 1 49 0
	movss	xmm5, DWORD PTR 4[r8]
.LVL166:
	.loc 1 48 0
	subss	xmm6, DWORD PTR [rcx]
.LBE371:
.LBE370:
.LBE369:
.LBE368:
.LBB383:
.LBB366:
	.loc 1 103 0
	movss	DWORD PTR 8[rdx], xmm8
.LVL167:
.LBE366:
.LBE383:
.LBB384:
.LBB380:
.LBB373:
.LBB372:
	.loc 1 49 0
	subss	xmm5, DWORD PTR 4[rcx]
	.loc 1 50 0
	movss	xmm4, DWORD PTR 8[r8]
	subss	xmm4, DWORD PTR 8[rcx]
.LVL168:
.LBE372:
.LBE373:
.LBB374:
.LBB375:
	.loc 1 100 0
	movaps	xmm2, xmm6
	movaps	xmm0, xmm5
	mulss	xmm2, xmm6
	mulss	xmm0, xmm5
	addss	xmm2, xmm0
	movaps	xmm0, xmm4
	mulss	xmm0, xmm4
	addss	xmm0, xmm2
	ucomiss	xmm10, xmm0
	sqrtss	xmm1, xmm0
	ja	.L73
.LVL169:
.L66:
	divss	xmm3, xmm1
.LVL170:
.LBE375:
.LBE374:
.LBE380:
.LBE384:
.LBB385:
.LBB386:
	.loc 1 198 0
	movaps	xmm2, xmm9
.LBE386:
.LBE385:
.LBB388:
.LBB381:
.LBB378:
.LBB376:
	.loc 1 103 0
	mulss	xmm5, xmm3
	mulss	xmm6, xmm3
	mulss	xmm4, xmm3
.LVL171:
.LBE376:
.LBE378:
.LBE381:
.LBE388:
.LBB389:
.LBB387:
	.loc 1 198 0
	movaps	xmm0, xmm5
	mulss	xmm2, xmm6
	mulss	xmm0, xmm7
	addss	xmm2, xmm0
	movaps	xmm0, xmm4
	mulss	xmm0, xmm8
	addss	xmm2, xmm0
.LVL172:
.LBE387:
.LBE389:
	.loc 1 275 0
	ucomiss	xmm2, xmm10
	jp	.L70
	.loc 1 277 0
	mov	eax, 0
	.loc 1 275 0
	je	.L64
.L70:
.LVL173:
.LBB390:
.LBB391:
	.loc 1 48 0
	movss	xmm11, DWORD PTR [rcx]
.LVL174:
.LBE391:
.LBE390:
	.loc 1 291 0
	mov	eax, 1
.LBB394:
.LBB392:
	.loc 1 49 0
	movss	xmm10, DWORD PTR 4[rcx]
.LVL175:
	.loc 1 48 0
	movss	xmm1, DWORD PTR [rsi]
	.loc 1 49 0
	movss	xmm0, DWORD PTR 4[rsi]
	.loc 1 48 0
	subss	xmm1, xmm11
.LVL176:
	.loc 1 49 0
	subss	xmm0, xmm10
.LVL177:
	.loc 1 50 0
	movss	xmm3, DWORD PTR 8[rcx]
.LVL178:
.LBE392:
.LBE394:
.LBB395:
.LBB396:
	.loc 1 146 0
	mulss	xmm1, xmm9
.LVL179:
	mulss	xmm0, xmm7
.LVL180:
	addss	xmm1, xmm0
.LBE396:
.LBE395:
.LBB398:
.LBB393:
	.loc 1 50 0
	movss	xmm0, DWORD PTR 8[rsi]
	subss	xmm0, xmm3
.LVL181:
.LBE393:
.LBE398:
.LBB399:
.LBB397:
	.loc 1 146 0
	mulss	xmm0, xmm8
.LVL182:
	addss	xmm0, xmm1
.LVL183:
.LBE397:
.LBE399:
	.loc 1 287 0
	mulss	xmm6, xmm0
.LVL184:
	.loc 1 288 0
	mulss	xmm5, xmm0
.LVL185:
	.loc 1 289 0
	mulss	xmm0, xmm4
.LVL186:
	.loc 1 287 0
	divss	xmm6, xmm2
	.loc 1 288 0
	divss	xmm5, xmm2
	.loc 1 287 0
	addss	xmm6, xmm11
.LVL187:
.LBB400:
.LBB401:
	.loc 1 24 0
	movss	DWORD PTR [rdi], xmm6
.LVL188:
.LBE401:
.LBE400:
	.loc 1 289 0
	divss	xmm0, xmm2
	.loc 1 287 0
	addss	xmm5, xmm10
.LVL189:
.LBB404:
.LBB402:
	.loc 1 25 0
	movss	DWORD PTR 4[rdi], xmm5
.LVL190:
.LBE402:
.LBE404:
	.loc 1 287 0
	addss	xmm0, xmm3
.LVL191:
.LBB405:
.LBB403:
	.loc 1 26 0
	movss	DWORD PTR 8[rdi], xmm0
.LVL192:
.L64:
.LBE403:
.LBE405:
	.loc 1 292 0
	add	rsp, 88
	.cfi_remember_state
	.cfi_def_cfa_offset 8
	ret
.LVL193:
.L72:
	.cfi_restore_state
	movss	DWORD PTR 56[rsp], xmm10
	mov	QWORD PTR 48[rsp], r8
	mov	QWORD PTR 40[rsp], rcx
	mov	QWORD PTR 32[rsp], rdx
	mov	QWORD PTR 24[rsp], rsi
	movss	DWORD PTR 12[rsp], xmm5
	mov	QWORD PTR 16[rsp], rdi
.LBB406:
.LBB367:
	.loc 1 100 0
	call	sqrtf@PLT
.LVL194:
	mov	rdx, QWORD PTR 32[rsp]
	movss	xmm10, DWORD PTR 56[rsp]
	mov	r8, QWORD PTR 48[rsp]
	mov	rcx, QWORD PTR 40[rsp]
	mov	rsi, QWORD PTR 24[rsp]
	mov	rdi, QWORD PTR 16[rsp]
	movss	xmm1, DWORD PTR [rdx]
	movss	xmm7, DWORD PTR 4[rdx]
	movss	xmm4, DWORD PTR 8[rdx]
	movss	xmm5, DWORD PTR 12[rsp]
	jmp	.L65
.LVL195:
.L73:
	movss	DWORD PTR 76[rsp], xmm3
	mov	QWORD PTR 64[rsp], rcx
	mov	QWORD PTR 56[rsp], rdx
	movss	DWORD PTR 72[rsp], xmm10
	mov	QWORD PTR 48[rsp], rsi
	mov	QWORD PTR 40[rsp], rdi
	movss	DWORD PTR 32[rsp], xmm1
	movss	DWORD PTR 24[rsp], xmm4
	movss	DWORD PTR 16[rsp], xmm5
	movss	DWORD PTR 12[rsp], xmm6
.LBE367:
.LBE406:
.LBB407:
.LBB382:
.LBB379:
.LBB377:
	call	sqrtf@PLT
.LVL196:
	mov	rdx, QWORD PTR 56[rsp]
	movss	xmm3, DWORD PTR 76[rsp]
	mov	rcx, QWORD PTR 64[rsp]
	movss	xmm10, DWORD PTR 72[rsp]
	mov	rsi, QWORD PTR 48[rsp]
	movss	xmm9, DWORD PTR [rdx]
	mov	rdi, QWORD PTR 40[rsp]
	movss	xmm7, DWORD PTR 4[rdx]
	movss	xmm8, DWORD PTR 8[rdx]
	movss	xmm1, DWORD PTR 32[rsp]
	movss	xmm4, DWORD PTR 24[rsp]
	movss	xmm5, DWORD PTR 16[rsp]
	movss	xmm6, DWORD PTR 12[rsp]
	jmp	.L66
.LBE377:
.LBE379:
.LBE382:
.LBE407:
	.cfi_endproc
.LFE55:
	.size	vectorAndPlaneIntersection, .-vectorAndPlaneIntersection
	.p2align 4,,15
	.globl	vec3projectPoint
	.type	vec3projectPoint, @function
vec3projectPoint:
.LFB56:
	.loc 1 295 0
	.cfi_startproc
.LVL197:
.LBB408:
.LBB409:
	.loc 1 86 0
	movss	xmm3, DWORD PTR 4[rsi]
.LBE409:
.LBE408:
	.loc 1 295 0
	mov	rax, rdi
.LBB412:
.LBB410:
	.loc 1 86 0
	movss	xmm2, DWORD PTR 8[rsi]
	mulss	xmm3, xmm0
.LVL198:
	mulss	xmm2, xmm0
.LVL199:
.LBE410:
.LBE412:
.LBB413:
.LBB414:
	.loc 1 48 0
	movss	xmm1, DWORD PTR [rdi]
.LBE414:
.LBE413:
.LBB416:
.LBB411:
	.loc 1 86 0
	mulss	xmm0, DWORD PTR [rsi]
.LVL200:
.LBE411:
.LBE416:
.LBB417:
.LBB415:
	.loc 1 48 0
	subss	xmm1, xmm0
	.loc 1 49 0
	movss	xmm0, DWORD PTR 4[rdi]
.LVL201:
	subss	xmm0, xmm3
	.loc 1 48 0
	movss	DWORD PTR [rax], xmm1
.LVL202:
	.loc 1 49 0
	movss	DWORD PTR 4[rdi], xmm0
	.loc 1 50 0
	movss	xmm0, DWORD PTR 8[rdi]
	subss	xmm0, xmm2
	movss	DWORD PTR 8[rdi], xmm0
.LVL203:
.LBE415:
.LBE417:
	.loc 1 298 0
	ret
	.cfi_endproc
.LFE56:
	.size	vec3projectPoint, .-vec3projectPoint
	.p2align 4,,15
	.globl	vec3attenuation
	.type	vec3attenuation, @function
vec3attenuation:
.LFB57:
	.loc 1 304 0
	.cfi_startproc
.LVL204:
	.loc 1 305 0
	divss	xmm0, xmm1
.LVL205:
	movaps	xmm1, xmm0
.LVL206:
	.loc 1 306 0
	pxor	xmm0, xmm0
.LVL207:
	ucomiss	xmm0, xmm1
	ja	.L77
	.loc 1 306 0 is_stmt 0 discriminator 2
	movss	xmm2, DWORD PTR .LC2[rip]
	ucomiss	xmm1, xmm2
	jbe	.L79
	.loc 1 307 0 is_stmt 1
	rep ret
	.p2align 4,,10
	.p2align 3
.L79:
	.loc 1 306 0 discriminator 5
	subss	xmm2, xmm1
	movaps	xmm0, xmm2
	ret
	.p2align 4,,10
	.p2align 3
.L77:
	.loc 1 306 0 is_stmt 0
	movss	xmm0, DWORD PTR .LC2[rip]
	.loc 1 307 0 is_stmt 1
	ret
	.cfi_endproc
.LFE57:
	.size	vec3attenuation, .-vec3attenuation
	.p2align 4,,15
	.globl	pointInSphere
	.type	pointInSphere, @function
pointInSphere:
.LFB58:
	.loc 1 311 0
	.cfi_startproc
.LVL208:
	.loc 1 312 0
	movss	xmm1, DWORD PTR [rdi]
	.loc 1 315 0
	mulss	xmm0, xmm0
.LVL209:
	.loc 1 313 0
	movss	xmm3, DWORD PTR 4[rdi]
	.loc 1 312 0
	subss	xmm1, DWORD PTR [rsi]
.LVL210:
	.loc 1 313 0
	subss	xmm3, DWORD PTR 4[rsi]
.LVL211:
	.loc 1 314 0
	movss	xmm2, DWORD PTR 8[rdi]
	subss	xmm2, DWORD PTR 8[rsi]
.LVL212:
	.loc 1 315 0
	mulss	xmm1, xmm1
.LVL213:
	mulss	xmm3, xmm3
.LVL214:
	mulss	xmm2, xmm2
.LVL215:
	addss	xmm1, xmm3
	addss	xmm1, xmm2
	ucomiss	xmm0, xmm1
	setnb	al
	.loc 1 316 0
	ret
	.cfi_endproc
.LFE58:
	.size	pointInSphere, .-pointInSphere
	.p2align 4,,15
	.globl	vec3computeLineDistance
	.type	vec3computeLineDistance, @function
vec3computeLineDistance:
.LFB59:
	.loc 1 320 0
	.cfi_startproc
.LVL216:
	.loc 1 321 0
	movss	xmm1, DWORD PTR [rdi]
	movss	xmm2, DWORD PTR 4[rdi]
	mulss	xmm1, xmm0
	mulss	xmm2, xmm0
	mulss	xmm0, DWORD PTR 8[rdi]
.LVL217:
	mulss	xmm1, DWORD PTR [rsi]
	mulss	xmm2, DWORD PTR 4[rsi]
	mulss	xmm0, DWORD PTR 8[rsi]
	addss	xmm1, xmm2
	addss	xmm0, xmm1
	addss	xmm0, DWORD PTR 12[rdi]
	.loc 1 322 0
	ret
	.cfi_endproc
.LFE59:
	.size	vec3computeLineDistance, .-vec3computeLineDistance
	.p2align 4,,15
	.globl	vec3computeLineCoefficients
	.type	vec3computeLineCoefficients, @function
vec3computeLineCoefficients:
.LFB60:
	.loc 1 325 0
	.cfi_startproc
.LVL218:
	sub	rsp, 40
	.cfi_def_cfa_offset 48
	.loc 1 326 0
	movss	xmm1, DWORD PTR 4[rsi]
	movss	xmm2, DWORD PTR 4[rdx]
	subss	xmm2, xmm1
	.loc 1 327 0
	movss	xmm6, DWORD PTR 4[rcx]
	.loc 1 326 0
	movss	xmm4, DWORD PTR 8[rsi]
	.loc 1 327 0
	subss	xmm6, xmm1
	.loc 1 326 0
	movss	xmm0, DWORD PTR [rsi]
	movss	xmm5, DWORD PTR 8[rdx]
	movss	xmm3, DWORD PTR [rdx]
	subss	xmm5, xmm4
	.loc 1 327 0
	movss	xmm7, DWORD PTR 8[rcx]
	.loc 1 326 0
	subss	xmm3, xmm0
.LVL219:
	.loc 1 327 0
	movss	xmm1, DWORD PTR [rcx]
	subss	xmm7, xmm4
	subss	xmm1, xmm0
.LVL220:
.LBB428:
.LBB429:
	.loc 1 136 0
	movaps	xmm8, xmm2
	movaps	xmm0, xmm3
	.loc 1 134 0
	mulss	xmm2, xmm7
.LVL221:
	.loc 1 136 0
	mulss	xmm8, xmm1
.LVL222:
	.loc 1 135 0
	mulss	xmm3, xmm7
.LVL223:
	mulss	xmm1, xmm5
.LVL224:
	.loc 1 134 0
	mulss	xmm5, xmm6
.LVL225:
	.loc 1 136 0
	mulss	xmm0, xmm6
.LVL226:
	.loc 1 134 0
	subss	xmm1, xmm3
	subss	xmm2, xmm5
.LVL227:
	movaps	xmm4, xmm0
.LVL228:
.LBE429:
.LBE428:
.LBB431:
.LBB432:
	.loc 1 100 0
	movaps	xmm0, xmm1
	movaps	xmm3, xmm2
.LBE432:
.LBE431:
.LBB435:
.LBB430:
	.loc 1 134 0
	subss	xmm4, xmm8
.LBE430:
.LBE435:
.LBB436:
.LBB433:
	.loc 1 100 0
	mulss	xmm0, xmm1
	mulss	xmm3, xmm2
	addss	xmm3, xmm0
	movaps	xmm0, xmm4
	mulss	xmm0, xmm4
	addss	xmm3, xmm0
	pxor	xmm0, xmm0
	ucomiss	xmm0, xmm3
	sqrtss	xmm5, xmm3
	ja	.L85
.LVL229:
.L83:
	movss	xmm0, DWORD PTR .LC2[rip]
	divss	xmm0, xmm5
.LVL230:
	.loc 1 103 0
	mulss	xmm1, xmm0
	mulss	xmm2, xmm0
	mulss	xmm0, xmm4
.LVL231:
.LBE433:
.LBE436:
	.loc 1 331 0
	movss	DWORD PTR 4[rdi], xmm1
.LBB437:
.LBB438:
	.loc 1 56 0
	xorps	xmm1, XMMWORD PTR .LC0[rip]
.LBE438:
.LBE437:
	.loc 1 330 0
	movss	DWORD PTR [rdi], xmm2
	.loc 1 332 0
	movss	DWORD PTR 8[rdi], xmm0
.LBB439:
.LBB440:
	.loc 1 146 0
	mulss	xmm2, DWORD PTR [rsi]
	mulss	xmm1, DWORD PTR 4[rsi]
	mulss	xmm0, DWORD PTR 8[rsi]
	subss	xmm1, xmm2
	subss	xmm1, xmm0
.LBE440:
.LBE439:
	.loc 1 333 0
	movss	DWORD PTR 12[rdi], xmm1
	.loc 1 334 0
	add	rsp, 40
	.cfi_remember_state
	.cfi_def_cfa_offset 8
	ret
.LVL232:
.L85:
	.cfi_restore_state
.LBB441:
.LBB434:
	.loc 1 100 0
	movaps	xmm0, xmm3
	mov	QWORD PTR 24[rsp], rsi
	mov	QWORD PTR 16[rsp], rdi
	movss	DWORD PTR 12[rsp], xmm5
	movss	DWORD PTR 8[rsp], xmm2
	movss	DWORD PTR 4[rsp], xmm1
	movss	DWORD PTR [rsp], xmm4
	call	sqrtf@PLT
.LVL233:
	mov	rsi, QWORD PTR 24[rsp]
	mov	rdi, QWORD PTR 16[rsp]
	movss	xmm5, DWORD PTR 12[rsp]
	movss	xmm2, DWORD PTR 8[rsp]
	movss	xmm1, DWORD PTR 4[rsp]
	movss	xmm4, DWORD PTR [rsp]
	jmp	.L83
.LBE434:
.LBE441:
	.cfi_endproc
.LFE60:
	.size	vec3computeLineCoefficients, .-vec3computeLineCoefficients
	.p2align 4,,15
	.globl	rtp_to_xyz
	.type	rtp_to_xyz, @function
rtp_to_xyz:
.LFB61:
	.loc 1 337 0
	.cfi_startproc
.LVL234:
	push	r12
	.cfi_def_cfa_offset 16
	.cfi_offset 12, -16
	push	rbp
	.cfi_def_cfa_offset 24
	.cfi_offset 6, -24
	push	rbx
	.cfi_def_cfa_offset 32
	.cfi_offset 3, -32
	mov	rbx, rdi
	sub	rsp, 32
	.cfi_def_cfa_offset 64
	lea	rbp, 28[rsp]
	lea	r12, 24[rsp]
	.loc 1 337 0
	movss	DWORD PTR 20[rsp], xmm0
	movaps	xmm0, xmm1
.LVL235:
	movss	DWORD PTR 16[rsp], xmm2
	mov	rsi, r12
	mov	rdi, rbp
.LVL236:
	call	sincosf@PLT
.LVL237:
	movss	xmm2, DWORD PTR 16[rsp]
	mov	rsi, r12
	movaps	xmm0, xmm2
	mov	rdi, rbp
	movss	xmm1, DWORD PTR 24[rsp]
	movss	xmm4, DWORD PTR 28[rsp]
	movss	DWORD PTR 12[rsp], xmm1
	movss	DWORD PTR 8[rsp], xmm4
	call	sincosf@PLT
.LVL238:
	.loc 1 338 0
	movss	xmm3, DWORD PTR 20[rsp]
	.loc 1 342 0
	mov	rax, rbx
	.loc 1 338 0
	movss	xmm0, DWORD PTR 28[rsp]
	mulss	xmm0, xmm3
	movss	xmm1, DWORD PTR 12[rsp]
	.loc 1 340 0
	mulss	xmm3, DWORD PTR 24[rsp]
	.loc 1 338 0
	mulss	xmm1, xmm0
	.loc 1 339 0
	mulss	xmm0, DWORD PTR 8[rsp]
	.loc 1 340 0
	movss	DWORD PTR 8[rbx], xmm3
	.loc 1 338 0
	movss	DWORD PTR [rbx], xmm1
	.loc 1 339 0
	movss	DWORD PTR 4[rbx], xmm0
	.loc 1 342 0
	add	rsp, 32
	.cfi_def_cfa_offset 32
	pop	rbx
	.cfi_def_cfa_offset 24
.LVL239:
	pop	rbp
	.cfi_def_cfa_offset 16
	pop	r12
	.cfi_def_cfa_offset 8
	ret
	.cfi_endproc
.LFE61:
	.size	rtp_to_xyz, .-rtp_to_xyz
	.section	.rodata.str1.1,"aMS",@progbits,1
.LC5:
	.string	"%s %+-.6f %+-.6f %+-.6f\n"
.LC6:
	.string	"%+-.6f %+-.6f %+-.6f\n"
	.text
	.p2align 4,,15
	.globl	vec3printf
	.type	vec3printf, @function
vec3printf:
.LFB62:
	.loc 1 345 0
	.cfi_startproc
.LVL240:
	pxor	xmm2, xmm2
	.loc 1 346 0
	test	rdi, rdi
	pxor	xmm1, xmm1
	pxor	xmm0, xmm0
	cvtss2sd	xmm2, DWORD PTR 8[rsi]
	cvtss2sd	xmm1, DWORD PTR 4[rsi]
	cvtss2sd	xmm0, DWORD PTR [rsi]
	je	.L89
	.loc 1 348 0
	mov	rsi, rdi
.LVL241:
	lea	rdi, .LC5[rip]
.LVL242:
	mov	eax, 3
	jmp	printf@PLT
.LVL243:
	.p2align 4,,10
	.p2align 3
.L89:
	.loc 1 352 0
	lea	rdi, .LC6[rip]
.LVL244:
	mov	eax, 3
	jmp	printf@PLT
.LVL245:
	.cfi_endproc
.LFE62:
	.size	vec3printf, .-vec3printf
	.section	.rodata.cst16,"aM",@progbits,16
	.align 16
.LC0:
	.long	2147483648
	.long	0
	.long	0
	.long	0
	.section	.rodata.cst4,"aM",@progbits,4
	.align 4
.LC2:
	.long	1065353216
	.align 4
.LC3:
	.long	3045472189
	.align 4
.LC4:
	.long	897988541
	.text
.Letext0:
	.file 2 "/usr/include/bits/types.h"
	.file 3 "./inc/math_types.h"
	.file 4 "/usr/include/math.h"
	.file 5 "/usr/lib/gcc/x86_64-pc-linux-gnu/7.2.0/include/stddef.h"
	.file 6 "/usr/include/libio.h"
	.file 7 "/usr/include/stdio.h"
	.file 8 "/usr/include/bits/sys_errlist.h"
	.file 9 "/usr/include/bits/mathcalls.h"
	.file 10 "<built-in>"
	.section	.note.GNU-stack,"",@progbits
